; Function Attrs: mustprogress nounwind uwtable
define hidden void @_ZN18ZLoadBarrierStubC2C2EPK8MachNode7Address8Register(ptr noundef nonnull align 8 dereferenceable(260) %0, ptr noundef %1, ptr noundef %2, i32 %3) unnamed_addr #0 align 2 {
  %5 = getelementptr inbounds i8, ptr %0, i64 8
  tail call void @_ZN13BarrierStubC2C2EPK8MachNode(ptr noundef nonnull align 8 dereferenceable(184) %5, ptr noundef %1) #14
  store ptr getelementptr inbounds inrange(-16, 8) (i8, ptr @_ZTV18ZLoadBarrierStubC2, i64 16), ptr %0, align 8
  %6 = getelementptr inbounds i8, ptr %0, i64 192
  tail call void @llvm.memcpy.p0.p0.i64(ptr noundef nonnull align 8 dereferenceable(21) %6, ptr noundef nonnull align 8 dereferenceable(21) %2, i64 21, i1 false)
  %7 = getelementptr inbounds i8, ptr %0, i64 216
  %8 = getelementptr inbounds i8, ptr %2, i64 24
  %9 = load ptr, ptr %8, align 8
  %10 = getelementptr inbounds i8, ptr %9, i64 16
  %11 = load ptr, ptr %10, align 8
  tail call void %11(ptr noundef nonnull align 8 dereferenceable(20) %8, ptr noundef nonnull align 8 dereferenceable(40) %7) #14
  %12 = getelementptr inbounds i8, ptr %0, i64 256
  store i32 %3, ptr %12, align 8
  tail call void @_ZN13BarrierStubC213dont_preserveE8Register(ptr noundef nonnull align 8 dereferenceable(184) %5, i32 %3) #14
  ret void
}